target datalayout = "e-m:e-p270:32:32-p271:32:32-p272:64:64-i64:64-i128:128-f80:128-n8:16:32:64-S128"
target triple = "x86_64-pc-linux-gnu"

%struct.evp_test_buffer_st = type { ptr, i64, i64, i32 }

@.str.29 = private unnamed_addr constant [27 x i8] c"../openssl/test/evp_test.c\00", align 1

; Function Attrs: nounwind uwtable
define internal void @evp_test_buffer_free(ptr noundef %0) #0 {
  %2 = alloca ptr, align 8
  store ptr %0, ptr %2, align 8, !tbaa !198
  %3 = load ptr, ptr %2, align 8, !tbaa !198
  %4 = icmp ne ptr %3, null
  br i1 %4, label %5, label %10

5:                                                ; preds = %1
  %6 = load ptr, ptr %2, align 8, !tbaa !198
  %7 = getelementptr inbounds nuw %struct.evp_test_buffer_st, ptr %6, i32 0, i32 0
  %8 = load ptr, ptr %7, align 8, !tbaa !202
  call void @CRYPTO_free(ptr noundef %8, ptr noundef @.str.29, i32 noundef 368)
  %9 = load ptr, ptr %2, align 8, !tbaa !198
  call void @CRYPTO_free(ptr noundef %9, ptr noundef @.str.29, i32 noundef 369)
  br label %10

10:                                               ; preds = %5, %1
  ret void
}