; Function Attrs: nounwind uwtable
define internal void @evp_test_buffer_free(ptr noundef %0) #1 {
  %.not = icmp eq ptr %0, null
  br i1 %.not, label %4, label %2

2:                                                ; preds = %1
  %3 = load ptr, ptr %0, align 8, !tbaa !165
  tail call void @CRYPTO_free(ptr noundef %3, ptr noundef nonnull @.str.29, i32 noundef 368) #10
  tail call void @CRYPTO_free(ptr noundef nonnull %0, ptr noundef nonnull @.str.29, i32 noundef 369) #10
  br label %4

4:                                                ; preds = %2, %1
  ret void
}